; Function Attrs: nounwind uwtable
define noalias noundef ptr @Acb_GenerateInstance2(ptr noundef readonly captures(none) %0, ptr noundef readonly captures(none) %1) local_unnamed_addr #0 {
  %3 = tail call noalias dereferenceable_or_null(16) ptr @malloc(i64 noundef 16) #29
  %4 = getelementptr inbounds nuw i8, ptr %3, i64 4
  store i32 0, ptr %4, align 4
  store i32 100, ptr %3, align 8
  %5 = tail call noalias dereferenceable_or_null(100) ptr @malloc(i64 noundef 100) #29
  %6 = getelementptr inbounds nuw i8, ptr %3, i64 8
  store ptr %5, ptr %6, align 8
  tail call fastcc void @Vec_StrAppend(ptr noundef nonnull %3, ptr noundef nonnull @.str.69)
  %7 = getelementptr i8, ptr %1, i64 4
  %.val2526 = load i32, ptr %7, align 4
  %8 = icmp sgt i32 %.val2526, 0
  br i1 %8, label %.lr.ph, label %.critedge.preheader

.lr.ph:                                           ; preds = %2
  %9 = getelementptr i8, ptr %1, i64 8
  br label %13

.critedge.preheader:                              ; preds = %13, %2
  %10 = getelementptr i8, ptr %0, i64 4
  %.val2428 = load i32, ptr %10, align 4
  %11 = icmp sgt i32 %.val2428, 0
  br i1 %11, label %.lr.ph30, label %.critedge2

.lr.ph30:                                         ; preds = %.critedge.preheader
  %12 = getelementptr i8, ptr %0, i64 8
  br label %.critedge

13:                                               ; preds = %.lr.ph, %13
  %indvars.iv = phi i64 [ 0, %.lr.ph ], [ %indvars.iv.next, %13 ]
  %.val23 = load ptr, ptr %9, align 8
  %14 = getelementptr inbounds nuw ptr, ptr %.val23, i64 %indvars.iv
  %15 = load ptr, ptr %14, align 8
  %.not = icmp eq i64 %indvars.iv, 0
  %16 = select i1 %.not, ptr @.str.23, ptr @.str.71
  %17 = trunc nuw nsw i64 %indvars.iv to i32
  tail call void (ptr, ptr, ...) @Vec_StrPrintF(ptr noundef nonnull %3, ptr noundef nonnull @.str.94, ptr noundef nonnull %16, ptr noundef %15, i32 noundef %17, ptr noundef %15)
  %indvars.iv.next = add nuw nsw i64 %indvars.iv, 1
  %.val25 = load i32, ptr %7, align 4
  %18 = sext i32 %.val25 to i64
  %19 = icmp slt i64 %indvars.iv.next, %18
  br i1 %19, label %13, label %.critedge.preheader, !llvm.loop !158

.critedge:                                        ; preds = %.lr.ph30, %.critedge
  %indvars.iv32 = phi i64 [ 0, %.lr.ph30 ], [ %indvars.iv.next33, %.critedge ]
  %.val = load ptr, ptr %12, align 8
  %20 = getelementptr inbounds nuw ptr, ptr %.val, i64 %indvars.iv32
  %21 = load ptr, ptr %20, align 8
  tail call void (ptr, ptr, ...) @Vec_StrPrintF(ptr noundef nonnull %3, ptr noundef nonnull @.str.72, ptr noundef %21, ptr noundef %21)
  %indvars.iv.next33 = add nuw nsw i64 %indvars.iv32, 1
  %.val24 = load i32, ptr %10, align 4
  %22 = sext i32 %.val24 to i64
  %23 = icmp slt i64 %indvars.iv.next33, %22
  br i1 %23, label %.critedge, label %.critedge2, !llvm.loop !159

.critedge2:                                       ; preds = %.critedge, %.critedge.preheader
  tail call fastcc void @Vec_StrAppend(ptr noundef nonnull %3, ptr noundef nonnull @.str.73)
  %24 = load i32, ptr %4, align 4
  %25 = load i32, ptr %3, align 8
  %26 = icmp eq i32 %24, %25
  br i1 %26, label %27, label %.Vec_StrGrow.exit10_crit_edge.i

.Vec_StrGrow.exit10_crit_edge.i:                  ; preds = %.critedge2
  %.pre.i = load ptr, ptr %6, align 8
  br label %Vec_StrPush.exit

27:                                               ; preds = %.critedge2
  %28 = icmp slt i32 %24, 16
  br i1 %28, label %29, label %36

29:                                               ; preds = %27
  %30 = load ptr, ptr %6, align 8
  %.not9.i.i = icmp eq ptr %30, null
  br i1 %.not9.i.i, label %33, label %31

31:                                               ; preds = %29
  %32 = tail call dereferenceable_or_null(16) ptr @realloc(ptr noundef nonnull %30, i64 noundef 16) #30
  br label %Vec_StrGrow.exit.i

33:                                               ; preds = %29
  %34 = tail call noalias dereferenceable_or_null(16) ptr @malloc(i64 noundef 16) #29
  br label %Vec_StrGrow.exit.i

Vec_StrGrow.exit.i:                               ; preds = %33, %31
  %35 = phi ptr [ %32, %31 ], [ %34, %33 ]
  store ptr %35, ptr %6, align 8
  store i32 16, ptr %3, align 8
  br label %Vec_StrPush.exit

36:                                               ; preds = %27
  %37 = shl nuw nsw i32 %24, 1
  %38 = load ptr, ptr %6, align 8
  %.not9.i9.i = icmp eq ptr %38, null
  %39 = zext nneg i32 %37 to i64
  br i1 %.not9.i9.i, label %42, label %40

40:                                               ; preds = %36
  %41 = tail call ptr @realloc(ptr noundef nonnull %38, i64 noundef %39) #30
  br label %44

42:                                               ; preds = %36
  %43 = tail call noalias ptr @malloc(i64 noundef %39) #29
  br label %44

44:                                               ; preds = %42, %40
  %45 = phi ptr [ %41, %40 ], [ %43, %42 ]
  store ptr %45, ptr %6, align 8
  store i32 %37, ptr %3, align 8
  br label %Vec_StrPush.exit

Vec_StrPush.exit:                                 ; preds = %.Vec_StrGrow.exit10_crit_edge.i, %Vec_StrGrow.exit.i, %44
  %46 = phi ptr [ %.pre.i, %.Vec_StrGrow.exit10_crit_edge.i ], [ %45, %44 ], [ %35, %Vec_StrGrow.exit.i ]
  %47 = add nsw i32 %24, 1
  store i32 %47, ptr %4, align 4
  %48 = sext i32 %24 to i64
  %49 = getelementptr inbounds i8, ptr %46, i64 %48
  store i8 0, ptr %49, align 1
  ret ptr %3
}